target datalayout = "e-m:e-p270:32:32-p271:32:32-p272:64:64-i64:64-i128:128-f80:128-n8:16:32:64-S128"
target triple = "x86_64-pc-linux-gnu"

%struct.PaUtilHostApiRepresentation = type { %struct.PaUtilPrivatePaFrontHostApiInfo, %struct.PaHostApiInfo, ptr, ptr, ptr, ptr }
%struct.PaUtilPrivatePaFrontHostApiInfo = type { i64 }
%struct.PaHostApiInfo = type { i32, i32, ptr, i32, i32, i32 }

; Function Attrs: nounwind uwtable
define i32 @PaUtil_DeviceIndexToHostApiDeviceIndex(ptr noundef %0, i32 noundef %1, ptr noundef %2) #0 {
  %4 = alloca ptr, align 8
  %5 = alloca i32, align 4
  %6 = alloca ptr, align 8
  %7 = alloca i32, align 4
  %8 = alloca i32, align 4
  store ptr %0, ptr %4, align 8
  store i32 %1, ptr %5, align 4
  store ptr %2, ptr %6, align 8
  %9 = load i32, ptr %5, align 4
  %10 = sext i32 %9 to i64
  %11 = load ptr, ptr %6, align 8
  %12 = getelementptr inbounds nuw %struct.PaUtilHostApiRepresentation, ptr %11, i32 0, i32 0
  %13 = getelementptr inbounds nuw %struct.PaUtilPrivatePaFrontHostApiInfo, ptr %12, i32 0, i32 0
  %14 = load i64, ptr %13, align 8
  %15 = sub i64 %10, %14
  %16 = trunc i64 %15 to i32
  store i32 %16, ptr %8, align 4
  %17 = load i32, ptr %8, align 4
  %18 = icmp slt i32 %17, 0
  br i1 %18, label %26, label %19

19:                                               ; preds = %3
  %20 = load i32, ptr %8, align 4
  %21 = load ptr, ptr %6, align 8
  %22 = getelementptr inbounds nuw %struct.PaUtilHostApiRepresentation, ptr %21, i32 0, i32 1
  %23 = getelementptr inbounds nuw %struct.PaHostApiInfo, ptr %22, i32 0, i32 3
  %24 = load i32, ptr %23, align 8
  %25 = icmp sge i32 %20, %24
  br i1 %25, label %26, label %27

26:                                               ; preds = %19, %3
  store i32 -9996, ptr %7, align 4
  br label %30

27:                                               ; preds = %19
  %28 = load i32, ptr %8, align 4
  %29 = load ptr, ptr %4, align 8
  store i32 %28, ptr %29, align 4
  store i32 0, ptr %7, align 4
  br label %30

30:                                               ; preds = %27, %26
  %31 = load i32, ptr %7, align 4
  ret i32 %31
}