; Function Attrs: mustprogress nofree norecurse nosync nounwind willreturn memory(argmem: readwrite) uwtable
define range(i32 -9996, 1) i32 @PaUtil_DeviceIndexToHostApiDeviceIndex(ptr nocapture noundef writeonly %0, i32 noundef %1, ptr nocapture noundef readonly %2) local_unnamed_addr #7 {
  %4 = load i64, ptr %2, align 8
  %5 = trunc i64 %4 to i32
  %6 = sub i32 %1, %5
  %7 = icmp slt i32 %6, 0
  br i1 %7, label %12, label %8

8:                                                ; preds = %3
  %9 = getelementptr inbounds i8, ptr %2, i64 24
  %10 = load i32, ptr %9, align 8
  %.not = icmp slt i32 %6, %10
  br i1 %.not, label %11, label %12

11:                                               ; preds = %8
  store i32 %6, ptr %0, align 4
  br label %12

12:                                               ; preds = %3, %8, %11
  %.0 = phi i32 [ 0, %11 ], [ -9996, %8 ], [ -9996, %3 ]
  ret i32 %.0
}